target datalayout = "e-m:e-p270:32:32-p271:32:32-p272:64:64-i64:64-i128:128-f80:128-n8:16:32:64-S128"
target triple = "x86_64-pc-linux-gnu"

%"class.sat::literal" = type { i32 }
%class.app = type { %class.expr, ptr, i32, %struct.app_flags, [0 x ptr] }
%class.expr = type { %class.ast }
%class.ast = type { i32, i32, i32, i32 }
%struct.app_flags = type <{ i16, i8, i8 }>

; Function Attrs: mustprogress nounwind uwtable
define linkonce_odr hidden i32 @_ZN3satcoENS_7literalE(i32 %0) #6 comdat {
  %2 = alloca %"class.sat::literal", align 4
  %3 = alloca %"class.sat::literal", align 4
  %4 = getelementptr inbounds nuw %"class.sat::literal", ptr %3, i32 0, i32 0
  store i32 %0, ptr %4, align 4
  %5 = getelementptr inbounds nuw %"class.sat::literal", ptr %3, i32 0, i32 0
  %6 = load i32, ptr %5, align 4, !tbaa !102
  %7 = xor i32 %6, 1
  %8 = getelementptr inbounds nuw %"class.sat::literal", ptr %3, i32 0, i32 0
  store i32 %7, ptr %8, align 4, !tbaa !102
  call void @llvm.memcpy.p0.p0.i64(ptr align 4 %2, ptr align 4 %3, i64 4, i1 false), !tbaa.struct !99
  %9 = getelementptr inbounds nuw %"class.sat::literal", ptr %2, i32 0, i32 0
  %10 = load i32, ptr %9, align 4
  ret i32 %10
}

; Function Attrs: mustprogress nounwind uwtable
define linkonce_odr hidden noundef ptr @_ZNK3app7get_argEj(ptr noundef nonnull align 8 dereferenceable(32) %0, i32 noundef %1) #6 comdat align 2 {
  %3 = alloca ptr, align 8
  %4 = alloca i32, align 4
  store ptr %0, ptr %3, align 8, !tbaa !105
  store i32 %1, ptr %4, align 4, !tbaa !57
  %5 = load ptr, ptr %3, align 8
  %6 = getelementptr inbounds nuw %class.app, ptr %5, i32 0, i32 4
  %7 = load i32, ptr %4, align 4, !tbaa !57
  %8 = zext i32 %7 to i64
  %9 = getelementptr inbounds nuw [0 x ptr], ptr %6, i64 0, i64 %8
  %10 = load ptr, ptr %9, align 8, !tbaa !93
  ret ptr %10
}

; Function Attrs: mustprogress uwtable
define hidden void @_ZN2bv6solver17internalize_carryEP3app(ptr noundef nonnull align 8 dereferenceable(640) %0, ptr noundef %1) #4 align 2 {
  %3 = alloca ptr, align 8
  %4 = alloca ptr, align 8
  %5 = alloca %"class.sat::literal", align 4
  %6 = alloca %"class.sat::literal", align 4
  %7 = alloca %"class.sat::literal", align 4
  %8 = alloca %"class.sat::literal", align 4
  %9 = alloca %"class.sat::literal", align 4
  %10 = alloca %"class.sat::literal", align 4
  %11 = alloca %"class.sat::literal", align 4
  %12 = alloca %"class.sat::literal", align 4
  %13 = alloca %"class.sat::literal", align 4
  %14 = alloca %"class.sat::literal", align 4
  %15 = alloca %"class.sat::literal", align 4
  %16 = alloca %"class.sat::literal", align 4
  %17 = alloca %"class.sat::literal", align 4
  %18 = alloca %"class.sat::literal", align 4
  %19 = alloca %"class.sat::literal", align 4
  %20 = alloca %"class.sat::literal", align 4
  %21 = alloca %"class.sat::literal", align 4
  %22 = alloca %"class.sat::literal", align 4
  %23 = alloca %"class.sat::literal", align 4
  %24 = alloca %"class.sat::literal", align 4
  %25 = alloca %"class.sat::literal", align 4
  %26 = alloca %"class.sat::literal", align 4
  %27 = alloca %"class.sat::literal", align 4
  %28 = alloca %"class.sat::literal", align 4
  %29 = alloca %"class.sat::literal", align 4
  %30 = alloca %"class.sat::literal", align 4
  %31 = alloca %"class.sat::literal", align 4
  %32 = alloca %"class.sat::literal", align 4
  %33 = alloca %"class.sat::literal", align 4
  %34 = alloca %"class.sat::literal", align 4
  %35 = alloca %"class.sat::literal", align 4
  store ptr %0, ptr %3, align 8, !tbaa !3
  store ptr %1, ptr %4, align 8, !tbaa !105
  %36 = load ptr, ptr %3, align 8
  call void @llvm.lifetime.start.p0(i64 4, ptr %5) #3
  %37 = load ptr, ptr %4, align 8, !tbaa !105
  %38 = call i32 @_ZNK3euf13th_euf_solver12expr2literalEP4expr(ptr noundef nonnull align 8 dereferenceable(108) %36, ptr noundef %37)
  %39 = getelementptr inbounds nuw %"class.sat::literal", ptr %5, i32 0, i32 0
  store i32 %38, ptr %39, align 4
  call void @llvm.lifetime.start.p0(i64 4, ptr %6) #3
  %40 = load ptr, ptr %4, align 8, !tbaa !105
  %41 = call noundef ptr @_ZNK3app7get_argEj(ptr noundef nonnull align 8 dereferenceable(32) %40, i32 noundef 0)
  %42 = call i32 @_ZNK3euf13th_euf_solver12expr2literalEP4expr(ptr noundef nonnull align 8 dereferenceable(108) %36, ptr noundef %41)
  %43 = getelementptr inbounds nuw %"class.sat::literal", ptr %6, i32 0, i32 0
  store i32 %42, ptr %43, align 4
  call void @llvm.lifetime.start.p0(i64 4, ptr %7) #3
  %44 = load ptr, ptr %4, align 8, !tbaa !105
  %45 = call noundef ptr @_ZNK3app7get_argEj(ptr noundef nonnull align 8 dereferenceable(32) %44, i32 noundef 1)
  %46 = call i32 @_ZNK3euf13th_euf_solver12expr2literalEP4expr(ptr noundef nonnull align 8 dereferenceable(108) %36, ptr noundef %45)
  %47 = getelementptr inbounds nuw %"class.sat::literal", ptr %7, i32 0, i32 0
  store i32 %46, ptr %47, align 4
  call void @llvm.lifetime.start.p0(i64 4, ptr %8) #3
  %48 = load ptr, ptr %4, align 8, !tbaa !105
  %49 = call noundef ptr @_ZNK3app7get_argEj(ptr noundef nonnull align 8 dereferenceable(32) %48, i32 noundef 2)
  %50 = call i32 @_ZNK3euf13th_euf_solver12expr2literalEP4expr(ptr noundef nonnull align 8 dereferenceable(108) %36, ptr noundef %49)
  %51 = getelementptr inbounds nuw %"class.sat::literal", ptr %8, i32 0, i32 0
  store i32 %50, ptr %51, align 4
  call void @llvm.memcpy.p0.p0.i64(ptr align 4 %10, ptr align 4 %5, i64 4, i1 false), !tbaa.struct !99
  %52 = getelementptr inbounds nuw %"class.sat::literal", ptr %10, i32 0, i32 0
  %53 = load i32, ptr %52, align 4
  %54 = call i32 @_ZN3satcoENS_7literalE(i32 %53)
  %55 = getelementptr inbounds nuw %"class.sat::literal", ptr %9, i32 0, i32 0
  store i32 %54, ptr %55, align 4
  call void @llvm.memcpy.p0.p0.i64(ptr align 4 %11, ptr align 4 %6, i64 4, i1 false), !tbaa.struct !99
  call void @llvm.memcpy.p0.p0.i64(ptr align 4 %12, ptr align 4 %7, i64 4, i1 false), !tbaa.struct !99
  %56 = getelementptr inbounds nuw %"class.sat::literal", ptr %9, i32 0, i32 0
  %57 = load i32, ptr %56, align 4
  %58 = getelementptr inbounds nuw %"class.sat::literal", ptr %11, i32 0, i32 0
  %59 = load i32, ptr %58, align 4
  %60 = getelementptr inbounds nuw %"class.sat::literal", ptr %12, i32 0, i32 0
  %61 = load i32, ptr %60, align 4
  %62 = call noundef zeroext i1 @_ZN3euf13th_euf_solver10add_clauseEN3sat7literalES2_S2_PKNS_13th_proof_hintE(ptr noundef nonnull align 8 dereferenceable(108) %36, i32 %57, i32 %59, i32 %61, ptr noundef null)
  call void @llvm.memcpy.p0.p0.i64(ptr align 4 %14, ptr align 4 %5, i64 4, i1 false), !tbaa.struct !99
  %63 = getelementptr inbounds nuw %"class.sat::literal", ptr %14, i32 0, i32 0
  %64 = load i32, ptr %63, align 4
  %65 = call i32 @_ZN3satcoENS_7literalE(i32 %64)
  %66 = getelementptr inbounds nuw %"class.sat::literal", ptr %13, i32 0, i32 0
  store i32 %65, ptr %66, align 4
  call void @llvm.memcpy.p0.p0.i64(ptr align 4 %15, ptr align 4 %6, i64 4, i1 false), !tbaa.struct !99
  call void @llvm.memcpy.p0.p0.i64(ptr align 4 %16, ptr align 4 %8, i64 4, i1 false), !tbaa.struct !99
  %67 = getelementptr inbounds nuw %"class.sat::literal", ptr %13, i32 0, i32 0
  %68 = load i32, ptr %67, align 4
  %69 = getelementptr inbounds nuw %"class.sat::literal", ptr %15, i32 0, i32 0
  %70 = load i32, ptr %69, align 4
  %71 = getelementptr inbounds nuw %"class.sat::literal", ptr %16, i32 0, i32 0
  %72 = load i32, ptr %71, align 4
  %73 = call noundef zeroext i1 @_ZN3euf13th_euf_solver10add_clauseEN3sat7literalES2_S2_PKNS_13th_proof_hintE(ptr noundef nonnull align 8 dereferenceable(108) %36, i32 %68, i32 %70, i32 %72, ptr noundef null)
  call void @llvm.memcpy.p0.p0.i64(ptr align 4 %18, ptr align 4 %5, i64 4, i1 false), !tbaa.struct !99
  %74 = getelementptr inbounds nuw %"class.sat::literal", ptr %18, i32 0, i32 0
  %75 = load i32, ptr %74, align 4
  %76 = call i32 @_ZN3satcoENS_7literalE(i32 %75)
  %77 = getelementptr inbounds nuw %"class.sat::literal", ptr %17, i32 0, i32 0
  store i32 %76, ptr %77, align 4
  call void @llvm.memcpy.p0.p0.i64(ptr align 4 %19, ptr align 4 %7, i64 4, i1 false), !tbaa.struct !99
  call void @llvm.memcpy.p0.p0.i64(ptr align 4 %20, ptr align 4 %8, i64 4, i1 false), !tbaa.struct !99
  %78 = getelementptr inbounds nuw %"class.sat::literal", ptr %17, i32 0, i32 0
  %79 = load i32, ptr %78, align 4
  %80 = getelementptr inbounds nuw %"class.sat::literal", ptr %19, i32 0, i32 0
  %81 = load i32, ptr %80, align 4
  %82 = getelementptr inbounds nuw %"class.sat::literal", ptr %20, i32 0, i32 0
  %83 = load i32, ptr %82, align 4
  %84 = call noundef zeroext i1 @_ZN3euf13th_euf_solver10add_clauseEN3sat7literalES2_S2_PKNS_13th_proof_hintE(ptr noundef nonnull align 8 dereferenceable(108) %36, i32 %79, i32 %81, i32 %83, ptr noundef null)
  call void @llvm.memcpy.p0.p0.i64(ptr align 4 %21, ptr align 4 %5, i64 4, i1 false), !tbaa.struct !99
  call void @llvm.memcpy.p0.p0.i64(ptr align 4 %23, ptr align 4 %6, i64 4, i1 false), !tbaa.struct !99
  %85 = getelementptr inbounds nuw %"class.sat::literal", ptr %23, i32 0, i32 0
  %86 = load i32, ptr %85, align 4
  %87 = call i32 @_ZN3satcoENS_7literalE(i32 %86)
  %88 = getelementptr inbounds nuw %"class.sat::literal", ptr %22, i32 0, i32 0
  store i32 %87, ptr %88, align 4
  call void @llvm.memcpy.p0.p0.i64(ptr align 4 %25, ptr align 4 %7, i64 4, i1 false), !tbaa.struct !99
  %89 = getelementptr inbounds nuw %"class.sat::literal", ptr %25, i32 0, i32 0
  %90 = load i32, ptr %89, align 4
  %91 = call i32 @_ZN3satcoENS_7literalE(i32 %90)
  %92 = getelementptr inbounds nuw %"class.sat::literal", ptr %24, i32 0, i32 0
  store i32 %91, ptr %92, align 4
  %93 = getelementptr inbounds nuw %"class.sat::literal", ptr %21, i32 0, i32 0
  %94 = load i32, ptr %93, align 4
  %95 = getelementptr inbounds nuw %"class.sat::literal", ptr %22, i32 0, i32 0
  %96 = load i32, ptr %95, align 4
  %97 = getelementptr inbounds nuw %"class.sat::literal", ptr %24, i32 0, i32 0
  %98 = load i32, ptr %97, align 4
  %99 = call noundef zeroext i1 @_ZN3euf13th_euf_solver10add_clauseEN3sat7literalES2_S2_PKNS_13th_proof_hintE(ptr noundef nonnull align 8 dereferenceable(108) %36, i32 %94, i32 %96, i32 %98, ptr noundef null)
  call void @llvm.memcpy.p0.p0.i64(ptr align 4 %26, ptr align 4 %5, i64 4, i1 false), !tbaa.struct !99
  call void @llvm.memcpy.p0.p0.i64(ptr align 4 %28, ptr align 4 %6, i64 4, i1 false), !tbaa.struct !99
  %100 = getelementptr inbounds nuw %"class.sat::literal", ptr %28, i32 0, i32 0
  %101 = load i32, ptr %100, align 4
  %102 = call i32 @_ZN3satcoENS_7literalE(i32 %101)
  %103 = getelementptr inbounds nuw %"class.sat::literal", ptr %27, i32 0, i32 0
  store i32 %102, ptr %103, align 4
  call void @llvm.memcpy.p0.p0.i64(ptr align 4 %30, ptr align 4 %8, i64 4, i1 false), !tbaa.struct !99
  %104 = getelementptr inbounds nuw %"class.sat::literal", ptr %30, i32 0, i32 0
  %105 = load i32, ptr %104, align 4
  %106 = call i32 @_ZN3satcoENS_7literalE(i32 %105)
  %107 = getelementptr inbounds nuw %"class.sat::literal", ptr %29, i32 0, i32 0
  store i32 %106, ptr %107, align 4
  %108 = getelementptr inbounds nuw %"class.sat::literal", ptr %26, i32 0, i32 0
  %109 = load i32, ptr %108, align 4
  %110 = getelementptr inbounds nuw %"class.sat::literal", ptr %27, i32 0, i32 0
  %111 = load i32, ptr %110, align 4
  %112 = getelementptr inbounds nuw %"class.sat::literal", ptr %29, i32 0, i32 0
  %113 = load i32, ptr %112, align 4
  %114 = call noundef zeroext i1 @_ZN3euf13th_euf_solver10add_clauseEN3sat7literalES2_S2_PKNS_13th_proof_hintE(ptr noundef nonnull align 8 dereferenceable(108) %36, i32 %109, i32 %111, i32 %113, ptr noundef null)
  call void @llvm.memcpy.p0.p0.i64(ptr align 4 %31, ptr align 4 %5, i64 4, i1 false), !tbaa.struct !99
  call void @llvm.memcpy.p0.p0.i64(ptr align 4 %33, ptr align 4 %7, i64 4, i1 false), !tbaa.struct !99
  %115 = getelementptr inbounds nuw %"class.sat::literal", ptr %33, i32 0, i32 0
  %116 = load i32, ptr %115, align 4
  %117 = call i32 @_ZN3satcoENS_7literalE(i32 %116)
  %118 = getelementptr inbounds nuw %"class.sat::literal", ptr %32, i32 0, i32 0
  store i32 %117, ptr %118, align 4
  call void @llvm.memcpy.p0.p0.i64(ptr align 4 %35, ptr align 4 %8, i64 4, i1 false), !tbaa.struct !99
  %119 = getelementptr inbounds nuw %"class.sat::literal", ptr %35, i32 0, i32 0
  %120 = load i32, ptr %119, align 4
  %121 = call i32 @_ZN3satcoENS_7literalE(i32 %120)
  %122 = getelementptr inbounds nuw %"class.sat::literal", ptr %34, i32 0, i32 0
  store i32 %121, ptr %122, align 4
  %123 = getelementptr inbounds nuw %"class.sat::literal", ptr %31, i32 0, i32 0
  %124 = load i32, ptr %123, align 4
  %125 = getelementptr inbounds nuw %"class.sat::literal", ptr %32, i32 0, i32 0
  %126 = load i32, ptr %125, align 4
  %127 = getelementptr inbounds nuw %"class.sat::literal", ptr %34, i32 0, i32 0
  %128 = load i32, ptr %127, align 4
  %129 = call noundef zeroext i1 @_ZN3euf13th_euf_solver10add_clauseEN3sat7literalES2_S2_PKNS_13th_proof_hintE(ptr noundef nonnull align 8 dereferenceable(108) %36, i32 %124, i32 %126, i32 %128, ptr noundef null)
  call void @llvm.lifetime.end.p0(i64 4, ptr %8) #3
  call void @llvm.lifetime.end.p0(i64 4, ptr %7) #3
  call void @llvm.lifetime.end.p0(i64 4, ptr %6) #3
  call void @llvm.lifetime.end.p0(i64 4, ptr %5) #3
  ret void
}